; ModuleID = '55/88.c'
source_filename = "55/88.c"
target datalayout = "e-m:e-p270:32:32-p271:32:32-p272:64:64-i64:64-f80:128-n8:16:32:64-S128"
target triple = "x86_64-pc-linux-gnu"

@.str = private unnamed_addr constant [7 x i8] c"%d%s%d\00", align 1
@.str.1 = private unnamed_addr constant [3 x i8] c"%c\00", align 1
@.str.2 = private unnamed_addr constant [2 x i8] c"\0A\00", align 1

; Function Attrs: noinline nounwind uwtable
define dso_local i32 @main() #0 {
  %1 = alloca i32, align 4
  %2 = alloca [200 x i8], align 16
  %3 = alloca [200 x i8], align 16
  %4 = alloca i32, align 4
  %5 = alloca i32, align 4
  %6 = alloca i64, align 8
  %7 = alloca i32, align 4
  %8 = alloca i32, align 4
  store i32 0, i32* %1, align 4
  store i64 0, i64* %6, align 8
  %9 = getelementptr inbounds [200 x i8], [200 x i8]* %2, i64 0, i64 0
  %10 = call i32 (i8*, ...) @__isoc99_scanf(i8* getelementptr inbounds ([7 x i8], [7 x i8]* @.str, i64 0, i64 0), i32* %4, i8* %9, i32* %5)
  store i32 0, i32* %7, align 4
  br label %11

11:                                               ; preds = %101, %0
  %12 = load i32, i32* %7, align 4
  %13 = getelementptr inbounds [200 x i8], [200 x i8]* %2, i64 0, i64 0
  %14 = call i64 @strlen(i8* %13) #3
  %15 = trunc i64 %14 to i32
  %16 = icmp slt i32 %12, %15
  br i1 %16, label %17, label %104

17:                                               ; preds = %11
  %18 = load i32, i32* %7, align 4
  %19 = sext i32 %18 to i64
  %20 = getelementptr inbounds [200 x i8], [200 x i8]* %2, i64 0, i64 %19
  %21 = load i8, i8* %20, align 1
  %22 = sext i8 %21 to i32
  %23 = icmp sge i32 %22, 48
  br i1 %23, label %24, label %44

24:                                               ; preds = %17
  %25 = load i32, i32* %7, align 4
  %26 = sext i32 %25 to i64
  %27 = getelementptr inbounds [200 x i8], [200 x i8]* %2, i64 0, i64 %26
  %28 = load i8, i8* %27, align 1
  %29 = sext i8 %28 to i32
  %30 = icmp sle i32 %29, 57
  br i1 %30, label %31, label %44

31:                                               ; preds = %24
  %32 = load i64, i64* %6, align 8
  %33 = load i32, i32* %4, align 4
  %34 = sext i32 %33 to i64
  %35 = mul nsw i64 %32, %34
  %36 = load i32, i32* %7, align 4
  %37 = sext i32 %36 to i64
  %38 = getelementptr inbounds [200 x i8], [200 x i8]* %2, i64 0, i64 %37
  %39 = load i8, i8* %38, align 1
  %40 = sext i8 %39 to i32
  %41 = sub nsw i32 %40, 48
  %42 = sext i32 %41 to i64
  %43 = add nsw i64 %35, %42
  store i64 %43, i64* %6, align 8
  br label %44

44:                                               ; preds = %31, %24, %17
  %45 = load i32, i32* %7, align 4
  %46 = sext i32 %45 to i64
  %47 = getelementptr inbounds [200 x i8], [200 x i8]* %2, i64 0, i64 %46
  %48 = load i8, i8* %47, align 1
  %49 = sext i8 %48 to i32
  %50 = icmp sge i32 %49, 97
  br i1 %50, label %51, label %72

51:                                               ; preds = %44
  %52 = load i32, i32* %7, align 4
  %53 = sext i32 %52 to i64
  %54 = getelementptr inbounds [200 x i8], [200 x i8]* %2, i64 0, i64 %53
  %55 = load i8, i8* %54, align 1
  %56 = sext i8 %55 to i32
  %57 = icmp sle i32 %56, 122
  br i1 %57, label %58, label %72

58:                                               ; preds = %51
  %59 = load i64, i64* %6, align 8
  %60 = load i32, i32* %4, align 4
  %61 = sext i32 %60 to i64
  %62 = mul nsw i64 %59, %61
  %63 = load i32, i32* %7, align 4
  %64 = sext i32 %63 to i64
  %65 = getelementptr inbounds [200 x i8], [200 x i8]* %2, i64 0, i64 %64
  %66 = load i8, i8* %65, align 1
  %67 = sext i8 %66 to i32
  %68 = sub nsw i32 %67, 97
  %69 = add nsw i32 %68, 10
  %70 = sext i32 %69 to i64
  %71 = add nsw i64 %62, %70
  store i64 %71, i64* %6, align 8
  br label %72

72:                                               ; preds = %58, %51, %44
  %73 = load i32, i32* %7, align 4
  %74 = sext i32 %73 to i64
  %75 = getelementptr inbounds [200 x i8], [200 x i8]* %2, i64 0, i64 %74
  %76 = load i8, i8* %75, align 1
  %77 = sext i8 %76 to i32
  %78 = icmp sge i32 %77, 65
  br i1 %78, label %79, label %100

79:                                               ; preds = %72
  %80 = load i32, i32* %7, align 4
  %81 = sext i32 %80 to i64
  %82 = getelementptr inbounds [200 x i8], [200 x i8]* %2, i64 0, i64 %81
  %83 = load i8, i8* %82, align 1
  %84 = sext i8 %83 to i32
  %85 = icmp sle i32 %84, 90
  br i1 %85, label %86, label %100

86:                                               ; preds = %79
  %87 = load i64, i64* %6, align 8
  %88 = load i32, i32* %4, align 4
  %89 = sext i32 %88 to i64
  %90 = mul nsw i64 %87, %89
  %91 = load i32, i32* %7, align 4
  %92 = sext i32 %91 to i64
  %93 = getelementptr inbounds [200 x i8], [200 x i8]* %2, i64 0, i64 %92
  %94 = load i8, i8* %93, align 1
  %95 = sext i8 %94 to i32
  %96 = sub nsw i32 %95, 65
  %97 = add nsw i32 %96, 10
  %98 = sext i32 %97 to i64
  %99 = add nsw i64 %90, %98
  store i64 %99, i64* %6, align 8
  br label %100

100:                                              ; preds = %86, %79, %72
  br label %101

101:                                              ; preds = %100
  %102 = load i32, i32* %7, align 4
  %103 = add nsw i32 %102, 1
  store i32 %103, i32* %7, align 4
  br label %11

104:                                              ; preds = %11
  store i32 0, i32* %7, align 4
  br label %105

105:                                              ; preds = %141, %104
  %106 = load i64, i64* %6, align 8
  %107 = load i32, i32* %5, align 4
  %108 = sext i32 %107 to i64
  %109 = srem i64 %106, %108
  %110 = add nsw i64 %109, 48
  %111 = trunc i64 %110 to i8
  %112 = load i32, i32* %7, align 4
  %113 = sext i32 %112 to i64
  %114 = getelementptr inbounds [200 x i8], [200 x i8]* %3, i64 0, i64 %113
  store i8 %111, i8* %114, align 1
  %115 = load i32, i32* %7, align 4
  %116 = sext i32 %115 to i64
  %117 = getelementptr inbounds [200 x i8], [200 x i8]* %3, i64 0, i64 %116
  %118 = load i8, i8* %117, align 1
  %119 = sext i8 %118 to i32
  %120 = icmp sgt i32 %119, 57
  br i1 %120, label %121, label %134

121:                                              ; preds = %105
  %122 = load i32, i32* %7, align 4
  %123 = sext i32 %122 to i64
  %124 = getelementptr inbounds [200 x i8], [200 x i8]* %3, i64 0, i64 %123
  %125 = load i8, i8* %124, align 1
  %126 = sext i8 %125 to i32
  %127 = sub nsw i32 %126, 48
  %128 = add nsw i32 %127, 65
  %129 = sub nsw i32 %128, 10
  %130 = trunc i32 %129 to i8
  %131 = load i32, i32* %7, align 4
  %132 = sext i32 %131 to i64
  %133 = getelementptr inbounds [200 x i8], [200 x i8]* %3, i64 0, i64 %132
  store i8 %130, i8* %133, align 1
  br label %134

134:                                              ; preds = %121, %105
  %135 = load i64, i64* %6, align 8
  %136 = load i32, i32* %5, align 4
  %137 = sext i32 %136 to i64
  %138 = sdiv i64 %135, %137
  store i64 %138, i64* %6, align 8
  %139 = load i32, i32* %7, align 4
  %140 = add nsw i32 %139, 1
  store i32 %140, i32* %7, align 4
  br label %141

141:                                              ; preds = %134
  %142 = load i64, i64* %6, align 8
  %143 = icmp sgt i64 %142, 0
  br i1 %143, label %105, label %144

144:                                              ; preds = %141
  %145 = load i32, i32* %7, align 4
  %146 = sub nsw i32 %145, 1
  store i32 %146, i32* %8, align 4
  br label %147

147:                                              ; preds = %157, %144
  %148 = load i32, i32* %8, align 4
  %149 = icmp sge i32 %148, 0
  br i1 %149, label %150, label %160

150:                                              ; preds = %147
  %151 = load i32, i32* %8, align 4
  %152 = sext i32 %151 to i64
  %153 = getelementptr inbounds [200 x i8], [200 x i8]* %3, i64 0, i64 %152
  %154 = load i8, i8* %153, align 1
  %155 = sext i8 %154 to i32
  %156 = call i32 (i8*, ...) @printf(i8* getelementptr inbounds ([3 x i8], [3 x i8]* @.str.1, i64 0, i64 0), i32 %155)
  br label %157

157:                                              ; preds = %150
  %158 = load i32, i32* %8, align 4
  %159 = add nsw i32 %158, -1
  store i32 %159, i32* %8, align 4
  br label %147

160:                                              ; preds = %147
  %161 = call i32 (i8*, ...) @printf(i8* getelementptr inbounds ([2 x i8], [2 x i8]* @.str.2, i64 0, i64 0))
  ret i32 0
}

declare dso_local i32 @__isoc99_scanf(i8*, ...) #1

; Function Attrs: nounwind readonly
declare dso_local i64 @strlen(i8*) #2

declare dso_local i32 @printf(i8*, ...) #1


!llvm.module.flags = !{!0}
!llvm.ident = !{!1}

!0 = !{i32 1, !"wchar_size", i32 4}
!1 = !{!"clang version 10.0.0-4ubuntu1 "}
